target datalayout = "e-m:e-p270:32:32-p271:32:32-p272:64:64-i64:64-i128:128-f80:128-n8:16:32:64-S128"
target triple = "x86_64-pc-linux-gnu"

%struct.AVStream = type { ptr, i32, i32, ptr, ptr, %struct.AVRational, i64, i64, i64, i32, i32, %struct.AVRational, ptr, %struct.AVRational, %struct.AVPacket, i32, %struct.AVRational, i32 }
%struct.AVPacket = type { ptr, i64, i64, ptr, i32, i32, i32, ptr, i32, i64, i64, ptr, ptr, %struct.AVRational }
%struct.AVRational = type { i32, i32 }
%struct.AVCodecParameters = type { i32, i32, i32, ptr, i32, ptr, i32, i32, i64, i32, i32, i32, i32, i32, i32, %struct.AVRational, %struct.AVRational, i32, i32, i32, i32, i32, i32, i32, %struct.AVChannelLayout, i32, i32, i32, i32, i32, i32 }
%struct.AVChannelLayout = type { i32, i32, %union.anon, ptr }
%union.anon = type { i64 }
%struct.AVFormatContext = type { ptr, ptr, ptr, ptr, ptr, i32, i32, ptr, i32, ptr, i32, ptr, ptr, i64, i64, i64, i32, i32, i32, i64, i64, ptr, i32, i32, ptr, i32, i32, i32, i32, ptr, i64, i32, i32, %struct.AVIOInterruptCB, i32, i32, i32, i32, i64, i32, i32, i32, i32, i32, i32, i32, i32, i32, i32, i32, i32, i64, i32, i32, i32, i32, i32, ptr, ptr, ptr, ptr, i32, ptr, ptr, ptr, ptr, i32, ptr, ptr, i64, ptr, ptr, ptr, i64 }
%struct.AVIOInterruptCB = type { ptr, ptr }

@.str.2 = private unnamed_addr constant [8 x i8] c"chan %d\00", align 1
@.str.3 = private unnamed_addr constant [19 x i8] c"Bps %d and sign %d\00", align 1

; Function Attrs: nounwind uwtable
define internal i32 @avr_read_header(ptr noundef %0) #0 {
  %2 = alloca i32, align 4
  %3 = alloca ptr, align 8
  %4 = alloca i16, align 2
  %5 = alloca i16, align 2
  %6 = alloca i16, align 2
  %7 = alloca ptr, align 8
  %8 = alloca i32, align 4
  store ptr %0, ptr %3, align 8, !tbaa !14
  call void @llvm.lifetime.start.p0(i64 2, ptr %4) #5
  call void @llvm.lifetime.start.p0(i64 2, ptr %5) #5
  call void @llvm.lifetime.start.p0(i64 2, ptr %6) #5
  call void @llvm.lifetime.start.p0(i64 8, ptr %7) #5
  %9 = load ptr, ptr %3, align 8, !tbaa !14
  %10 = call ptr @avformat_new_stream(ptr noundef %9, ptr noundef null)
  store ptr %10, ptr %7, align 8, !tbaa !16
  %11 = load ptr, ptr %7, align 8, !tbaa !16
  %12 = icmp ne ptr %11, null
  br i1 %12, label %14, label %13

13:                                               ; preds = %1
  store i32 -12, ptr %2, align 4
  store i32 1, ptr %8, align 4
  br label %133

14:                                               ; preds = %1
  %15 = load ptr, ptr %7, align 8, !tbaa !16
  %16 = getelementptr inbounds nuw %struct.AVStream, ptr %15, i32 0, i32 3
  %17 = load ptr, ptr %16, align 8, !tbaa !18
  %18 = getelementptr inbounds nuw %struct.AVCodecParameters, ptr %17, i32 0, i32 0
  store i32 1, ptr %18, align 8, !tbaa !28
  %19 = load ptr, ptr %3, align 8, !tbaa !14
  %20 = getelementptr inbounds nuw %struct.AVFormatContext, ptr %19, i32 0, i32 4
  %21 = load ptr, ptr %20, align 8, !tbaa !31
  %22 = call i64 @avio_skip(ptr noundef %21, i64 noundef 12)
  %23 = load ptr, ptr %3, align 8, !tbaa !14
  %24 = getelementptr inbounds nuw %struct.AVFormatContext, ptr %23, i32 0, i32 4
  %25 = load ptr, ptr %24, align 8, !tbaa !31
  %26 = call i32 @avio_rb16(ptr noundef %25)
  %27 = trunc i32 %26 to i16
  store i16 %27, ptr %4, align 2, !tbaa !43
  %28 = load i16, ptr %4, align 2, !tbaa !43
  %29 = icmp ne i16 %28, 0
  br i1 %29, label %36, label %30

30:                                               ; preds = %14
  %31 = load ptr, ptr %7, align 8, !tbaa !16
  %32 = getelementptr inbounds nuw %struct.AVStream, ptr %31, i32 0, i32 3
  %33 = load ptr, ptr %32, align 8, !tbaa !18
  %34 = getelementptr inbounds nuw %struct.AVCodecParameters, ptr %33, i32 0, i32 24
  %35 = getelementptr inbounds nuw %struct.AVChannelLayout, ptr %34, i32 0, i32 1
  store i32 1, ptr %35, align 4, !tbaa !45
  br label %51

36:                                               ; preds = %14
  %37 = load i16, ptr %4, align 2, !tbaa !43
  %38 = zext i16 %37 to i32
  %39 = icmp eq i32 %38, 65535
  br i1 %39, label %40, label %46

40:                                               ; preds = %36
  %41 = load ptr, ptr %7, align 8, !tbaa !16
  %42 = getelementptr inbounds nuw %struct.AVStream, ptr %41, i32 0, i32 3
  %43 = load ptr, ptr %42, align 8, !tbaa !18
  %44 = getelementptr inbounds nuw %struct.AVCodecParameters, ptr %43, i32 0, i32 24
  %45 = getelementptr inbounds nuw %struct.AVChannelLayout, ptr %44, i32 0, i32 1
  store i32 2, ptr %45, align 4, !tbaa !45
  br label %50

46:                                               ; preds = %36
  %47 = load ptr, ptr %3, align 8, !tbaa !14
  %48 = load i16, ptr %4, align 2, !tbaa !43
  %49 = zext i16 %48 to i32
  call void (ptr, ptr, ...) @avpriv_request_sample(ptr noundef %47, ptr noundef @.str.2, i32 noundef %49)
  store i32 -1163346256, ptr %2, align 4
  store i32 1, ptr %8, align 4
  br label %133

50:                                               ; preds = %40
  br label %51

51:                                               ; preds = %50, %30
  %52 = load ptr, ptr %3, align 8, !tbaa !14
  %53 = getelementptr inbounds nuw %struct.AVFormatContext, ptr %52, i32 0, i32 4
  %54 = load ptr, ptr %53, align 8, !tbaa !31
  %55 = call i32 @avio_rb16(ptr noundef %54)
  %56 = trunc i32 %55 to i16
  store i16 %56, ptr %6, align 2, !tbaa !43
  %57 = zext i16 %56 to i32
  %58 = load ptr, ptr %7, align 8, !tbaa !16
  %59 = getelementptr inbounds nuw %struct.AVStream, ptr %58, i32 0, i32 3
  %60 = load ptr, ptr %59, align 8, !tbaa !18
  %61 = getelementptr inbounds nuw %struct.AVCodecParameters, ptr %60, i32 0, i32 9
  store i32 %57, ptr %61, align 8, !tbaa !46
  %62 = load ptr, ptr %3, align 8, !tbaa !14
  %63 = getelementptr inbounds nuw %struct.AVFormatContext, ptr %62, i32 0, i32 4
  %64 = load ptr, ptr %63, align 8, !tbaa !31
  %65 = call i32 @avio_rb16(ptr noundef %64)
  %66 = trunc i32 %65 to i16
  store i16 %66, ptr %5, align 2, !tbaa !43
  %67 = load ptr, ptr %3, align 8, !tbaa !14
  %68 = getelementptr inbounds nuw %struct.AVFormatContext, ptr %67, i32 0, i32 4
  %69 = load ptr, ptr %68, align 8, !tbaa !31
  %70 = call i64 @avio_skip(ptr noundef %69, i64 noundef 5)
  %71 = load ptr, ptr %3, align 8, !tbaa !14
  %72 = getelementptr inbounds nuw %struct.AVFormatContext, ptr %71, i32 0, i32 4
  %73 = load ptr, ptr %72, align 8, !tbaa !31
  %74 = call i32 @avio_rb24(ptr noundef %73)
  %75 = load ptr, ptr %7, align 8, !tbaa !16
  %76 = getelementptr inbounds nuw %struct.AVStream, ptr %75, i32 0, i32 3
  %77 = load ptr, ptr %76, align 8, !tbaa !18
  %78 = getelementptr inbounds nuw %struct.AVCodecParameters, ptr %77, i32 0, i32 25
  store i32 %74, ptr %78, align 8, !tbaa !47
  %79 = load ptr, ptr %7, align 8, !tbaa !16
  %80 = getelementptr inbounds nuw %struct.AVStream, ptr %79, i32 0, i32 3
  %81 = load ptr, ptr %80, align 8, !tbaa !18
  %82 = getelementptr inbounds nuw %struct.AVCodecParameters, ptr %81, i32 0, i32 25
  %83 = load i32, ptr %82, align 8, !tbaa !47
  %84 = icmp eq i32 %83, 0
  br i1 %84, label %85, label %86

85:                                               ; preds = %51
  store i32 -1094995529, ptr %2, align 4
  store i32 1, ptr %8, align 4
  br label %133

86:                                               ; preds = %51
  %87 = load ptr, ptr %3, align 8, !tbaa !14
  %88 = getelementptr inbounds nuw %struct.AVFormatContext, ptr %87, i32 0, i32 4
  %89 = load ptr, ptr %88, align 8, !tbaa !31
  %90 = call i64 @avio_skip(ptr noundef %89, i64 noundef 102)
  %91 = load i16, ptr %6, align 2, !tbaa !43
  %92 = zext i16 %91 to i32
  %93 = load i16, ptr %5, align 2, !tbaa !43
  %94 = zext i16 %93 to i32
  %95 = call i32 @ff_get_pcm_codec_id(i32 noundef %92, i32 noundef 0, i32 noundef 1, i32 noundef %94)
  %96 = load ptr, ptr %7, align 8, !tbaa !16
  %97 = getelementptr inbounds nuw %struct.AVStream, ptr %96, i32 0, i32 3
  %98 = load ptr, ptr %97, align 8, !tbaa !18
  %99 = getelementptr inbounds nuw %struct.AVCodecParameters, ptr %98, i32 0, i32 1
  store i32 %95, ptr %99, align 4, !tbaa !48
  %100 = load ptr, ptr %7, align 8, !tbaa !16
  %101 = getelementptr inbounds nuw %struct.AVStream, ptr %100, i32 0, i32 3
  %102 = load ptr, ptr %101, align 8, !tbaa !18
  %103 = getelementptr inbounds nuw %struct.AVCodecParameters, ptr %102, i32 0, i32 1
  %104 = load i32, ptr %103, align 4, !tbaa !48
  %105 = icmp eq i32 %104, 0
  br i1 %105, label %106, label %112

106:                                              ; preds = %86
  %107 = load ptr, ptr %3, align 8, !tbaa !14
  %108 = load i16, ptr %6, align 2, !tbaa !43
  %109 = zext i16 %108 to i32
  %110 = load i16, ptr %5, align 2, !tbaa !43
  %111 = zext i16 %110 to i32
  call void (ptr, ptr, ...) @avpriv_request_sample(ptr noundef %107, ptr noundef @.str.3, i32 noundef %109, i32 noundef %111)
  store i32 -1163346256, ptr %2, align 4
  store i32 1, ptr %8, align 4
  br label %133

112:                                              ; preds = %86
  %113 = load i16, ptr %6, align 2, !tbaa !43
  %114 = zext i16 %113 to i32
  %115 = load ptr, ptr %7, align 8, !tbaa !16
  %116 = getelementptr inbounds nuw %struct.AVStream, ptr %115, i32 0, i32 3
  %117 = load ptr, ptr %116, align 8, !tbaa !18
  %118 = getelementptr inbounds nuw %struct.AVCodecParameters, ptr %117, i32 0, i32 24
  %119 = getelementptr inbounds nuw %struct.AVChannelLayout, ptr %118, i32 0, i32 1
  %120 = load i32, ptr %119, align 4, !tbaa !45
  %121 = mul nsw i32 %114, %120
  %122 = sdiv i32 %121, 8
  %123 = load ptr, ptr %7, align 8, !tbaa !16
  %124 = getelementptr inbounds nuw %struct.AVStream, ptr %123, i32 0, i32 3
  %125 = load ptr, ptr %124, align 8, !tbaa !18
  %126 = getelementptr inbounds nuw %struct.AVCodecParameters, ptr %125, i32 0, i32 26
  store i32 %122, ptr %126, align 4, !tbaa !49
  %127 = load ptr, ptr %7, align 8, !tbaa !16
  %128 = load ptr, ptr %7, align 8, !tbaa !16
  %129 = getelementptr inbounds nuw %struct.AVStream, ptr %128, i32 0, i32 3
  %130 = load ptr, ptr %129, align 8, !tbaa !18
  %131 = getelementptr inbounds nuw %struct.AVCodecParameters, ptr %130, i32 0, i32 25
  %132 = load i32, ptr %131, align 8, !tbaa !47
  call void @avpriv_set_pts_info(ptr noundef %127, i32 noundef 64, i32 noundef 1, i32 noundef %132)
  store i32 0, ptr %2, align 4
  store i32 1, ptr %8, align 4
  br label %133

133:                                              ; preds = %112, %106, %85, %46, %13
  call void @llvm.lifetime.end.p0(i64 8, ptr %7) #5
  call void @llvm.lifetime.end.p0(i64 2, ptr %6) #5
  call void @llvm.lifetime.end.p0(i64 2, ptr %5) #5
  call void @llvm.lifetime.end.p0(i64 2, ptr %4) #5
  %134 = load i32, ptr %2, align 4
  ret i32 %134
}