; Function Attrs: nounwind uwtable
define internal range(i32 -1163346256, 1) i32 @avr_read_header(ptr noundef %0) #1 {
  %2 = tail call ptr @avformat_new_stream(ptr noundef %0, ptr noundef null) #4
  %.not = icmp eq ptr %2, null
  br i1 %.not, label %48, label %3

3:                                                ; preds = %1
  %4 = getelementptr inbounds nuw i8, ptr %2, i64 16
  %5 = load ptr, ptr %4, align 8, !tbaa !12
  store i32 1, ptr %5, align 8, !tbaa !22
  %6 = getelementptr inbounds nuw i8, ptr %0, i64 32
  %7 = load ptr, ptr %6, align 8, !tbaa !25
  %8 = tail call i64 @avio_skip(ptr noundef %7, i64 noundef 12) #4
  %9 = load ptr, ptr %6, align 8, !tbaa !25
  %10 = tail call i32 @avio_rb16(ptr noundef %9) #4
  %trunc = trunc i32 %10 to i16
  switch i16 %trunc, label %12 [
    i16 0, label %14
    i16 -1, label %11
  ]

11:                                               ; preds = %3
  br label %14

12:                                               ; preds = %3
  %13 = and i32 %10, 65535
  tail call void (ptr, ptr, ...) @avpriv_request_sample(ptr noundef nonnull %0, ptr noundef nonnull @.str.2, i32 noundef %13) #4
  br label %48

14:                                               ; preds = %3, %11
  %.sink = phi i32 [ 2, %11 ], [ 1, %3 ]
  %15 = load ptr, ptr %4, align 8, !tbaa !12
  %16 = getelementptr inbounds nuw i8, ptr %15, i64 132
  store i32 %.sink, ptr %16, align 4, !tbaa !37
  %17 = load ptr, ptr %6, align 8, !tbaa !25
  %18 = tail call i32 @avio_rb16(ptr noundef %17) #4
  %19 = and i32 %18, 65535
  %20 = load ptr, ptr %4, align 8, !tbaa !12
  %21 = getelementptr inbounds nuw i8, ptr %20, i64 56
  store i32 %19, ptr %21, align 8, !tbaa !38
  %22 = load ptr, ptr %6, align 8, !tbaa !25
  %23 = tail call i32 @avio_rb16(ptr noundef %22) #4
  %24 = load ptr, ptr %6, align 8, !tbaa !25
  %25 = tail call i64 @avio_skip(ptr noundef %24, i64 noundef 5) #4
  %26 = load ptr, ptr %6, align 8, !tbaa !25
  %27 = tail call i32 @avio_rb24(ptr noundef %26) #4
  %28 = load ptr, ptr %4, align 8, !tbaa !12
  %29 = getelementptr inbounds nuw i8, ptr %28, i64 152
  store i32 %27, ptr %29, align 8, !tbaa !39
  %30 = icmp eq i32 %27, 0
  br i1 %30, label %48, label %31

31:                                               ; preds = %14
  %32 = load ptr, ptr %6, align 8, !tbaa !25
  %33 = tail call i64 @avio_skip(ptr noundef %32, i64 noundef 102) #4
  %34 = and i32 %23, 65535
  %35 = tail call i32 @ff_get_pcm_codec_id(i32 noundef %19, i32 noundef 0, i32 noundef 1, i32 noundef %34) #4
  %36 = load ptr, ptr %4, align 8, !tbaa !12
  %37 = getelementptr inbounds nuw i8, ptr %36, i64 4
  store i32 %35, ptr %37, align 4, !tbaa !40
  %38 = icmp eq i32 %35, 0
  br i1 %38, label %39, label %40

39:                                               ; preds = %31
  tail call void (ptr, ptr, ...) @avpriv_request_sample(ptr noundef nonnull %0, ptr noundef nonnull @.str.3, i32 noundef %19, i32 noundef %34) #4
  br label %48

40:                                               ; preds = %31
  %41 = getelementptr inbounds nuw i8, ptr %36, i64 132
  %42 = load i32, ptr %41, align 4, !tbaa !37
  %43 = mul nsw i32 %42, %19
  %44 = sdiv i32 %43, 8
  %45 = getelementptr inbounds nuw i8, ptr %36, i64 156
  store i32 %44, ptr %45, align 4, !tbaa !41
  %46 = getelementptr inbounds nuw i8, ptr %36, i64 152
  %47 = load i32, ptr %46, align 8, !tbaa !39
  tail call void @avpriv_set_pts_info(ptr noundef nonnull %2, i32 noundef 64, i32 noundef 1, i32 noundef %47) #4
  br label %48

48:                                               ; preds = %14, %1, %40, %39, %12
  %.0 = phi i32 [ -1163346256, %39 ], [ 0, %40 ], [ -1163346256, %12 ], [ -12, %1 ], [ -1094995529, %14 ]
  ret i32 %.0
}